; ModuleID = '49/266.c'
source_filename = "49/266.c"
target datalayout = "e-m:e-p270:32:32-p271:32:32-p272:64:64-i64:64-f80:128-n8:16:32:64-S128"
target triple = "x86_64-pc-linux-gnu"

@.str = private unnamed_addr constant [3 x i8] c"%s\00", align 1
@.str.1 = private unnamed_addr constant [3 x i8] c"%c\00", align 1
@.str.2 = private unnamed_addr constant [2 x i8] c"\0A\00", align 1

; Function Attrs: noinline nounwind uwtable
define dso_local i32 @main() #0 {
  %1 = alloca i32, align 4
  %2 = alloca [500 x i8], align 16
  %3 = alloca i8*, align 8
  %4 = alloca i8*, align 8
  %5 = alloca i32, align 4
  %6 = alloca i32, align 4
  %7 = alloca i32, align 4
  store i32 0, i32* %1, align 4
  %8 = getelementptr inbounds [500 x i8], [500 x i8]* %2, i64 0, i64 0
  %9 = call i32 (i8*, ...) @__isoc99_scanf(i8* getelementptr inbounds ([3 x i8], [3 x i8]* @.str, i64 0, i64 0), i8* %8)
  %10 = getelementptr inbounds [500 x i8], [500 x i8]* %2, i64 0, i64 0
  %11 = call i64 @strlen(i8* %10) #3
  %12 = trunc i64 %11 to i32
  store i32 %12, i32* %7, align 4
  store i32 2, i32* %5, align 4
  br label %13

13:                                               ; preds = %92, %0
  %14 = load i32, i32* %5, align 4
  %15 = load i32, i32* %7, align 4
  %16 = icmp sle i32 %14, %15
  br i1 %16, label %17, label %95

17:                                               ; preds = %13
  %18 = getelementptr inbounds [500 x i8], [500 x i8]* %2, i64 0, i64 0
  store i8* %18, i8** %3, align 8
  br label %19

19:                                               ; preds = %88, %17
  %20 = load i8*, i8** %3, align 8
  %21 = getelementptr inbounds [500 x i8], [500 x i8]* %2, i64 0, i64 0
  %22 = load i32, i32* %7, align 4
  %23 = sext i32 %22 to i64
  %24 = getelementptr inbounds i8, i8* %21, i64 %23
  %25 = load i32, i32* %5, align 4
  %26 = sext i32 %25 to i64
  %27 = sub i64 0, %26
  %28 = getelementptr inbounds i8, i8* %24, i64 %27
  %29 = icmp ule i8* %20, %28
  br i1 %29, label %30, label %91

30:                                               ; preds = %19
  %31 = load i8*, i8** %3, align 8
  store i8* %31, i8** %4, align 8
  br label %32

32:                                               ; preds = %59, %30
  %33 = load i8*, i8** %4, align 8
  %34 = load i8*, i8** %3, align 8
  %35 = load i32, i32* %5, align 4
  %36 = sext i32 %35 to i64
  %37 = getelementptr inbounds i8, i8* %34, i64 %36
  %38 = icmp ult i8* %33, %37
  br i1 %38, label %39, label %62

39:                                               ; preds = %32
  %40 = load i8*, i8** %4, align 8
  %41 = load i8, i8* %40, align 1
  %42 = sext i8 %41 to i32
  %43 = load i8*, i8** %3, align 8
  %44 = load i8*, i8** %3, align 8
  %45 = load i32, i32* %5, align 4
  %46 = sext i32 %45 to i64
  %47 = getelementptr inbounds i8, i8* %44, i64 %46
  %48 = load i8*, i8** %4, align 8
  %49 = ptrtoint i8* %47 to i64
  %50 = ptrtoint i8* %48 to i64
  %51 = sub i64 %49, %50
  %52 = sub nsw i64 %51, 1
  %53 = getelementptr inbounds i8, i8* %43, i64 %52
  %54 = load i8, i8* %53, align 1
  %55 = sext i8 %54 to i32
  %56 = icmp ne i32 %42, %55
  br i1 %56, label %57, label %58

57:                                               ; preds = %39
  br label %62

58:                                               ; preds = %39
  br label %59

59:                                               ; preds = %58
  %60 = load i8*, i8** %4, align 8
  %61 = getelementptr inbounds i8, i8* %60, i32 1
  store i8* %61, i8** %4, align 8
  br label %32

62:                                               ; preds = %57, %32
  %63 = load i8*, i8** %4, align 8
  %64 = load i8*, i8** %3, align 8
  %65 = load i32, i32* %5, align 4
  %66 = sext i32 %65 to i64
  %67 = getelementptr inbounds i8, i8* %64, i64 %66
  %68 = icmp eq i8* %63, %67
  br i1 %68, label %69, label %87

69:                                               ; preds = %62
  store i32 0, i32* %6, align 4
  br label %70

70:                                               ; preds = %82, %69
  %71 = load i32, i32* %6, align 4
  %72 = load i32, i32* %5, align 4
  %73 = icmp slt i32 %71, %72
  br i1 %73, label %74, label %85

74:                                               ; preds = %70
  %75 = load i8*, i8** %3, align 8
  %76 = load i32, i32* %6, align 4
  %77 = sext i32 %76 to i64
  %78 = getelementptr inbounds i8, i8* %75, i64 %77
  %79 = load i8, i8* %78, align 1
  %80 = sext i8 %79 to i32
  %81 = call i32 (i8*, ...) @printf(i8* getelementptr inbounds ([3 x i8], [3 x i8]* @.str.1, i64 0, i64 0), i32 %80)
  br label %82

82:                                               ; preds = %74
  %83 = load i32, i32* %6, align 4
  %84 = add nsw i32 %83, 1
  store i32 %84, i32* %6, align 4
  br label %70

85:                                               ; preds = %70
  %86 = call i32 (i8*, ...) @printf(i8* getelementptr inbounds ([2 x i8], [2 x i8]* @.str.2, i64 0, i64 0))
  br label %87

87:                                               ; preds = %85, %62
  br label %88

88:                                               ; preds = %87
  %89 = load i8*, i8** %3, align 8
  %90 = getelementptr inbounds i8, i8* %89, i32 1
  store i8* %90, i8** %3, align 8
  br label %19

91:                                               ; preds = %19
  br label %92

92:                                               ; preds = %91
  %93 = load i32, i32* %5, align 4
  %94 = add nsw i32 %93, 1
  store i32 %94, i32* %5, align 4
  br label %13

95:                                               ; preds = %13
  ret i32 0
}

declare dso_local i32 @__isoc99_scanf(i8*, ...) #1

; Function Attrs: nounwind readonly
declare dso_local i64 @strlen(i8*) #2

declare dso_local i32 @printf(i8*, ...) #1


!llvm.module.flags = !{!0}
!llvm.ident = !{!1}

!0 = !{i32 1, !"wchar_size", i32 4}
!1 = !{!"clang version 10.0.0-4ubuntu1 "}
